Archive member included because of file (symbol)

d:/software/haikuvm/hardware/tools/avr/bin/../lib/gcc/avr/4.3.2/../../../../avr/lib/avr5\libc.a(exit.o)
                              d:/software/haikuvm/hardware/tools/avr/bin/../lib/gcc/avr/4.3.2/../../../../avr/lib/avr5/crtm328p.o (exit)
d:/software/haikuvm/hardware/tools/avr/bin/../lib/gcc/avr/4.3.2/../../../../avr/lib/avr5\libc.a(memcpy_P.o)
                              ./HaikuVM/haikuJ2C.o (memcpy_P)
d:/software/haikuvm/hardware/tools/avr/bin/../lib/gcc/avr/4.3.2/../../../../avr/lib/avr5\libc.a(memcpy.o)
                              ./HaikuVM/haikuJavaNatives.o (memcpy)
d:/software/haikuvm/hardware/tools/avr/bin/../lib/gcc/avr/4.3.2/../../../../avr/lib/avr5\libc.a(memset.o)
                              ./HaikuVM/haikuJ2C.o (memset)
d:/software/haikuvm/hardware/tools/avr/bin/../lib/gcc/avr/4.3.2/../../../../avr/lib/avr5\libc.a(printf.o)
                              ./tutorials/NativeCVariableClass.o (printf)
d:/software/haikuvm/hardware/tools/avr/bin/../lib/gcc/avr/4.3.2/../../../../avr/lib/avr5\libc.a(addsf3.o)
                              ./tutorials/JNIenhanced.o (__addsf3)
d:/software/haikuvm/hardware/tools/avr/bin/../lib/gcc/avr/4.3.2/../../../../avr/lib/avr5\libc.a(addsf3x.o)
                              d:/software/haikuvm/hardware/tools/avr/bin/../lib/gcc/avr/4.3.2/../../../../avr/lib/avr5\libc.a(addsf3.o) (__addsf3x)
d:/software/haikuvm/hardware/tools/avr/bin/../lib/gcc/avr/4.3.2/../../../../avr/lib/avr5\libc.a(fixsfsi.o)
                              ./tutorials/NativeCVariableEnhanced.o (__fixsfsi)
d:/software/haikuvm/hardware/tools/avr/bin/../lib/gcc/avr/4.3.2/../../../../avr/lib/avr5\libc.a(fixunssfsi.o)
                              d:/software/haikuvm/hardware/tools/avr/bin/../lib/gcc/avr/4.3.2/../../../../avr/lib/avr5\libc.a(fixsfsi.o) (__fixunssfsi)
d:/software/haikuvm/hardware/tools/avr/bin/../lib/gcc/avr/4.3.2/../../../../avr/lib/avr5\libc.a(floatsisf.o)
                              ./tutorials/JNIenhanced.o (__floatsisf)
d:/software/haikuvm/hardware/tools/avr/bin/../lib/gcc/avr/4.3.2/../../../../avr/lib/avr5\libc.a(fp_inf.o)
                              d:/software/haikuvm/hardware/tools/avr/bin/../lib/gcc/avr/4.3.2/../../../../avr/lib/avr5\libc.a(addsf3x.o) (__fp_inf)
d:/software/haikuvm/hardware/tools/avr/bin/../lib/gcc/avr/4.3.2/../../../../avr/lib/avr5\libc.a(fp_nan.o)
                              d:/software/haikuvm/hardware/tools/avr/bin/../lib/gcc/avr/4.3.2/../../../../avr/lib/avr5\libc.a(addsf3x.o) (__fp_nan)
d:/software/haikuvm/hardware/tools/avr/bin/../lib/gcc/avr/4.3.2/../../../../avr/lib/avr5\libc.a(fp_pscA.o)
                              d:/software/haikuvm/hardware/tools/avr/bin/../lib/gcc/avr/4.3.2/../../../../avr/lib/avr5\libc.a(addsf3x.o) (__fp_pscA)
d:/software/haikuvm/hardware/tools/avr/bin/../lib/gcc/avr/4.3.2/../../../../avr/lib/avr5\libc.a(fp_pscB.o)
                              d:/software/haikuvm/hardware/tools/avr/bin/../lib/gcc/avr/4.3.2/../../../../avr/lib/avr5\libc.a(addsf3x.o) (__fp_pscB)
d:/software/haikuvm/hardware/tools/avr/bin/../lib/gcc/avr/4.3.2/../../../../avr/lib/avr5\libc.a(fp_round.o)
                              d:/software/haikuvm/hardware/tools/avr/bin/../lib/gcc/avr/4.3.2/../../../../avr/lib/avr5\libc.a(addsf3.o) (__fp_round)
d:/software/haikuvm/hardware/tools/avr/bin/../lib/gcc/avr/4.3.2/../../../../avr/lib/avr5\libc.a(fp_split3.o)
                              d:/software/haikuvm/hardware/tools/avr/bin/../lib/gcc/avr/4.3.2/../../../../avr/lib/avr5\libc.a(addsf3x.o) (__fp_split3)
d:/software/haikuvm/hardware/tools/avr/bin/../lib/gcc/avr/4.3.2/../../../../avr/lib/avr5\libc.a(fp_zero.o)
                              d:/software/haikuvm/hardware/tools/avr/bin/../lib/gcc/avr/4.3.2/../../../../avr/lib/avr5\libc.a(addsf3x.o) (__fp_zero)
d:/software/haikuvm/hardware/tools/avr/bin/../lib/gcc/avr/4.3.2/../../../../avr/lib/avr5\libc.a(sin.o)
                              ./tutorials/JNINativeLIBC.o (sin)
d:/software/haikuvm/hardware/tools/avr/bin/../lib/gcc/avr/4.3.2/../../../../avr/lib/avr5\libc.a(vfprintf_std.o)
                              d:/software/haikuvm/hardware/tools/avr/bin/../lib/gcc/avr/4.3.2/../../../../avr/lib/avr5\libc.a(printf.o) (vfprintf)
d:/software/haikuvm/hardware/tools/avr/bin/../lib/gcc/avr/4.3.2/../../../../avr/lib/avr5\libc.a(strnlen_P.o)
                              d:/software/haikuvm/hardware/tools/avr/bin/../lib/gcc/avr/4.3.2/../../../../avr/lib/avr5\libc.a(vfprintf_std.o) (strnlen_P)
d:/software/haikuvm/hardware/tools/avr/bin/../lib/gcc/avr/4.3.2/../../../../avr/lib/avr5\libc.a(strnlen.o)
                              d:/software/haikuvm/hardware/tools/avr/bin/../lib/gcc/avr/4.3.2/../../../../avr/lib/avr5\libc.a(vfprintf_std.o) (strnlen)
d:/software/haikuvm/hardware/tools/avr/bin/../lib/gcc/avr/4.3.2/../../../../avr/lib/avr5\libc.a(fputc.o)
                              d:/software/haikuvm/hardware/tools/avr/bin/../lib/gcc/avr/4.3.2/../../../../avr/lib/avr5\libc.a(vfprintf_std.o) (fputc)
d:/software/haikuvm/hardware/tools/avr/bin/../lib/gcc/avr/4.3.2/../../../../avr/lib/avr5\libc.a(iob.o)
                              d:/software/haikuvm/hardware/tools/avr/bin/../lib/gcc/avr/4.3.2/../../../../avr/lib/avr5\libc.a(printf.o) (__iob)
d:/software/haikuvm/hardware/tools/avr/bin/../lib/gcc/avr/4.3.2/../../../../avr/lib/avr5\libc.a(ultoa_invert.o)
                              d:/software/haikuvm/hardware/tools/avr/bin/../lib/gcc/avr/4.3.2/../../../../avr/lib/avr5\libc.a(vfprintf_std.o) (__ultoa_invert)
d:/software/haikuvm/hardware/tools/avr/bin/../lib/gcc/avr/4.3.2/../../../../avr/lib/avr5\libc.a(fp_rempio2.o)
                              d:/software/haikuvm/hardware/tools/avr/bin/../lib/gcc/avr/4.3.2/../../../../avr/lib/avr5\libc.a(sin.o) (__fp_rempio2)
d:/software/haikuvm/hardware/tools/avr/bin/../lib/gcc/avr/4.3.2/../../../../avr/lib/avr5\libc.a(fp_sinus.o)
                              d:/software/haikuvm/hardware/tools/avr/bin/../lib/gcc/avr/4.3.2/../../../../avr/lib/avr5\libc.a(sin.o) (__fp_sinus)
d:/software/haikuvm/hardware/tools/avr/bin/../lib/gcc/avr/4.3.2/../../../../avr/lib/avr5\libc.a(fp_mpack.o)
                              d:/software/haikuvm/hardware/tools/avr/bin/../lib/gcc/avr/4.3.2/../../../../avr/lib/avr5\libc.a(fp_rempio2.o) (__fp_mpack)
d:/software/haikuvm/hardware/tools/avr/bin/../lib/gcc/avr/4.3.2/../../../../avr/lib/avr5\libc.a(fp_powsodd.o)
                              d:/software/haikuvm/hardware/tools/avr/bin/../lib/gcc/avr/4.3.2/../../../../avr/lib/avr5\libc.a(fp_sinus.o) (__fp_powsodd)
d:/software/haikuvm/hardware/tools/avr/bin/../lib/gcc/avr/4.3.2/../../../../avr/lib/avr5\libc.a(mulsf3.o)
                              d:/software/haikuvm/hardware/tools/avr/bin/../lib/gcc/avr/4.3.2/../../../../avr/lib/avr5\libc.a(fp_powsodd.o) (__mulsf3)
d:/software/haikuvm/hardware/tools/avr/bin/../lib/gcc/avr/4.3.2/../../../../avr/lib/avr5\libc.a(mulsf3x.o)
                              d:/software/haikuvm/hardware/tools/avr/bin/../lib/gcc/avr/4.3.2/../../../../avr/lib/avr5\libc.a(mulsf3.o) (__mulsf3x)
d:/software/haikuvm/hardware/tools/avr/bin/../lib/gcc/avr/4.3.2/../../../../avr/lib/avr5\libc.a(fp_powser.o)
                              d:/software/haikuvm/hardware/tools/avr/bin/../lib/gcc/avr/4.3.2/../../../../avr/lib/avr5\libc.a(fp_powsodd.o) (__fp_powser)
d:/software/haikuvm/hardware/tools/avr/bin/../lib/gcc/avr/4.3.2/avr5\libgcc.a(_udivmodhi4.o)
                              ./HaikuVM/haikuJavaNatives.o (__udivmodhi4)
d:/software/haikuvm/hardware/tools/avr/bin/../lib/gcc/avr/4.3.2/avr5\libgcc.a(_divmodhi4.o)
                              ./HaikuVM/JVM.o (__divmodhi4)
d:/software/haikuvm/hardware/tools/avr/bin/../lib/gcc/avr/4.3.2/avr5\libgcc.a(_udivmodsi4.o)
                              ./HaikuVM/simpleOS.o (__udivmodsi4)
d:/software/haikuvm/hardware/tools/avr/bin/../lib/gcc/avr/4.3.2/avr5\libgcc.a(_prologue.o)
                              d:/software/haikuvm/hardware/tools/avr/bin/../lib/gcc/avr/4.3.2/../../../../avr/lib/avr5\libc.a(printf.o) (__prologue_saves__)
d:/software/haikuvm/hardware/tools/avr/bin/../lib/gcc/avr/4.3.2/avr5\libgcc.a(_epilogue.o)
                              d:/software/haikuvm/hardware/tools/avr/bin/../lib/gcc/avr/4.3.2/../../../../avr/lib/avr5\libc.a(printf.o) (__epilogue_restores__)
d:/software/haikuvm/hardware/tools/avr/bin/../lib/gcc/avr/4.3.2/avr5\libgcc.a(_exit.o)
                              d:/software/haikuvm/hardware/tools/avr/bin/../lib/gcc/avr/4.3.2/../../../../avr/lib/avr5\libc.a(exit.o) (_exit)
d:/software/haikuvm/hardware/tools/avr/bin/../lib/gcc/avr/4.3.2/avr5\libgcc.a(_copy_data.o)
                              ./HaikuVM/examples/HaikuVM/HaikuVMUsingArduinoIDE.o (__do_copy_data)
d:/software/haikuvm/hardware/tools/avr/bin/../lib/gcc/avr/4.3.2/avr5\libgcc.a(_clear_bss.o)
                              ./HaikuVM/examples/HaikuVM/HaikuVMUsingArduinoIDE.o (__do_clear_bss)

Allocating common symbols
Common symbol       size              file

t                   0x1               ./HaikuVM/JVM.o
heapmem             0x6cf             ./HaikuVM/JVM.o
result3             0x2               ./tutorials/NativeCVariableSimple.o
stack               0x2               ./HaikuVM/haikuJ2C.o
result4a            0x4               ./tutorials/NativeCVariableEnhanced.o
top                 0x4               ./HaikuVM/haikuJ2C.o
result4b            0x2               ./tutorials/NativeCVariableEnhanced.o
count36kHz          0x1               ./HaikuVM/simpleOS.o
tvm                 0x6               ./HaikuVM/haikuJ2C.o
bc                  0x1               ./HaikuVM/JVM.o
__iob               0x6               d:/software/haikuvm/hardware/tools/avr/bin/../lib/gcc/avr/4.3.2/../../../../avr/lib/avr5\libc.a(iob.o)
allStatics          0xa               ./HaikuVM/utility/haikuConfig.o

Discarded input sections

 .data          0x00000000        0x0 d:/software/haikuvm/hardware/tools/avr/bin/../lib/gcc/avr/4.3.2/../../../../avr/lib/avr5/crtm328p.o
 .bss           0x00000000        0x0 d:/software/haikuvm/hardware/tools/avr/bin/../lib/gcc/avr/4.3.2/../../../../avr/lib/avr5/crtm328p.o
 .text          0x00000000        0x0 ./HaikuVM/examples/HaikuVM/HaikuVMUsingArduinoIDE.o
 .data          0x00000000        0x0 ./HaikuVM/examples/HaikuVM/HaikuVMUsingArduinoIDE.o
 .bss           0x00000000        0x0 ./HaikuVM/examples/HaikuVM/HaikuVMUsingArduinoIDE.o
 .text          0x00000000        0x0 ./HaikuVM/utility/haikuConfig.o
 .data          0x00000000        0x0 ./HaikuVM/utility/haikuConfig.o
 .bss           0x00000000        0x0 ./HaikuVM/utility/haikuConfig.o
 .text          0x00000000        0x0 ./HaikuVM/utility/haikuJava.o
 .data          0x00000000        0x0 ./HaikuVM/utility/haikuJava.o
 .bss           0x00000000        0x0 ./HaikuVM/utility/haikuJava.o
 .text          0x00000000        0x0 ./HaikuVM/utility/haikuJNI.o
 .data          0x00000000        0x0 ./HaikuVM/utility/haikuJNI.o
 .bss           0x00000000        0x0 ./HaikuVM/utility/haikuJNI.o
 .text          0x00000000        0x0 ./HaikuVM/utility/NativeCFunctions.o
 .data          0x00000000        0x0 ./HaikuVM/utility/NativeCFunctions.o
 .bss           0x00000000        0x0 ./HaikuVM/utility/NativeCFunctions.o
 .text          0x00000000        0x0 ./HaikuVM/HaikuAppMain.o
 .data          0x00000000        0x0 ./HaikuVM/HaikuAppMain.o
 .bss           0x00000000        0x0 ./HaikuVM/HaikuAppMain.o
 .text          0x00000000        0x0 ./HaikuVM/haikuJ2C.o
 .data          0x00000000        0x0 ./HaikuVM/haikuJ2C.o
 .bss           0x00000000        0x0 ./HaikuVM/haikuJ2C.o
 .text.isetLocal
                0x00000000        0x0 ./HaikuVM/haikuJ2C.o
 .text.vsetLocal
                0x00000000        0x0 ./HaikuVM/haikuJ2C.o
 .text.ipush    0x00000000        0x0 ./HaikuVM/haikuJ2C.o
 .text.pushTop0
                0x00000000        0x0 ./HaikuVM/haikuJ2C.o
 .text.vpush    0x00000000        0x0 ./HaikuVM/haikuJ2C.o
 .text.popTop0  0x00000000        0x0 ./HaikuVM/haikuJ2C.o
 .text.bpop     0x00000000        0x0 ./HaikuVM/haikuJ2C.o
 .text.fpop     0x00000000        0x0 ./HaikuVM/haikuJ2C.o
 .text.popp2    0x00000000        0x0 ./HaikuVM/haikuJ2C.o
 .text.instanceOf
                0x00000000        0x0 ./HaikuVM/haikuJ2C.o
 .text.athrow   0x00000000        0x0 ./HaikuVM/haikuJ2C.o
 .text.monitorexit
                0x00000000        0x0 ./HaikuVM/haikuJ2C.o
 .text.monitorenter
                0x00000000        0x0 ./HaikuVM/haikuJ2C.o
 .text          0x00000000        0x0 ./HaikuVM/haikuJavaNatives.o
 .data          0x00000000        0x0 ./HaikuVM/haikuJavaNatives.o
 .bss           0x00000000        0x0 ./HaikuVM/haikuJavaNatives.o
 .text.native_java_lang_Double_doubleToRawLongBits_DJ
                0x00000000        0x0 ./HaikuVM/haikuJavaNatives.o
 .text.native_java_lang_Double_longBitsToDouble_JD
                0x00000000        0x0 ./HaikuVM/haikuJavaNatives.o
 .text.native_java_lang_Float_floatToRawIntBits_FI
                0x00000000        0x0 ./HaikuVM/haikuJavaNatives.o
 .text.native_haiku_vm_MemoryAccess_getMemory8_II
                0x00000000        0x0 ./HaikuVM/haikuJavaNatives.o
 .text.native_haiku_vm_MemoryAccess_getMemory16_II
                0x00000000        0x0 ./HaikuVM/haikuJavaNatives.o
 .text.native_java_lang_VM_getFirmwareRevision_Ljava_lang_String
                0x00000000        0x0 ./HaikuVM/haikuJavaNatives.o
 .text.native_java_lang_Thread_fork_I
                0x00000000        0x0 ./HaikuVM/haikuJavaNatives.o
 .text.native_haiku_vm_MemoryAccess_setMemory16_IIV
                0x00000000        0x0 ./HaikuVM/haikuJavaNatives.o
 .text.native_haiku_vm_MemoryAccess_setMemory8_IIV
                0x00000000        0x0 ./HaikuVM/haikuJavaNatives.o
 .text.getSize  0x00000000        0x0 ./HaikuVM/haikuJavaNatives.o
 .text.native_java_lang_System_arraycopy_Ljava_lang_Object_ILjava_lang_Object_IIV
                0x00000000        0x0 ./HaikuVM/haikuJavaNatives.o
 .text.native_java_lang_System_currentTimeMillis_J
                0x00000000        0x0 ./HaikuVM/haikuJavaNatives.o
 .text.native_java_lang_Object_clone_Ljava_lang_Object
                0x00000000        0x0 ./HaikuVM/haikuJavaNatives.o
 .text          0x00000000        0x0 ./HaikuVM/halfprecision.o
 .data          0x00000000        0x0 ./HaikuVM/halfprecision.o
 .bss           0x00000000        0x0 ./HaikuVM/halfprecision.o
 .text.floatToInt16
                0x00000000        0x0 ./HaikuVM/halfprecision.o
 .text.int16ToFloat
                0x00000000        0x0 ./HaikuVM/halfprecision.o
 .text          0x00000000        0x0 ./HaikuVM/heap.o
 .data          0x00000000        0x0 ./HaikuVM/heap.o
 .bss           0x00000000        0x0 ./HaikuVM/heap.o
 .text.testHeap
                0x00000000        0x0 ./HaikuVM/heap.o
 .text.multiArray
                0x00000000        0x0 ./HaikuVM/heap.o
 .text          0x00000000        0x0 ./HaikuVM/JVM.o
 .data          0x00000000        0x0 ./HaikuVM/JVM.o
 .bss           0x00000000        0x0 ./HaikuVM/JVM.o
 .text.GETCODEDWORD2
                0x00000000        0x0 ./HaikuVM/JVM.o
 .text.unused   0x00000000        0x0 ./HaikuVM/JVM.o
 .text.unimplemented
                0x00000000        0x0 ./HaikuVM/JVM.o
 .text          0x00000000        0x0 ./HaikuVM/romspace.o
 .data          0x00000000        0x0 ./HaikuVM/romspace.o
 .bss           0x00000000        0x0 ./HaikuVM/romspace.o
 .text.pgm_read_byteROM
                0x00000000        0x0 ./HaikuVM/romspace.o
 .text.pgm_read_wordROM
                0x00000000        0x0 ./HaikuVM/romspace.o
 .text.pgm_read_dwordROM
                0x00000000        0x0 ./HaikuVM/romspace.o
 .text          0x00000000        0x0 ./HaikuVM/simpleOS.o
 .data          0x00000000        0x0 ./HaikuVM/simpleOS.o
 .bss           0x00000000        0x0 ./HaikuVM/simpleOS.o
 COMMON         0x00000000        0x0 ./HaikuVM/simpleOS.o
 .text          0x00000000        0x0 ./tutorials/ArduinoUsingCLIB.o
 .data          0x00000000        0x0 ./tutorials/ArduinoUsingCLIB.o
 .bss           0x00000000        0x0 ./tutorials/ArduinoUsingCLIB.o
 .text          0x00000000        0x0 ./tutorials/interruptTimer2.o
 .data          0x00000000        0x0 ./tutorials/interruptTimer2.o
 .bss           0x00000000        0x0 ./tutorials/interruptTimer2.o
 .text.Java_arduino_tutorial_InterruptTimer2_getTimer2
                0x00000000        0x0 ./tutorials/interruptTimer2.o
 .text.native_arduino_tutorial_InterruptTimer2_getTimer2_J
                0x00000000        0x0 ./tutorials/interruptTimer2.o
 .bss.timer2_interrupts
                0x00000000        0x0 ./tutorials/interruptTimer2.o
 .text          0x00000000        0x0 ./tutorials/JNIenhanced.o
 .data          0x00000000        0x0 ./tutorials/JNIenhanced.o
 .bss           0x00000000        0x0 ./tutorials/JNIenhanced.o
 .text.Java_arduino_tutorial_JNIenhanced_result
                0x00000000        0x0 ./tutorials/JNIenhanced.o
 .text.native_arduino_tutorial_JNIenhanced_result_D
                0x00000000        0x0 ./tutorials/JNIenhanced.o
 .text.Java_arduino_tutorial_JNIenhanced_add
                0x00000000        0x0 ./tutorials/JNIenhanced.o
 .text.native_arduino_tutorial_JNIenhanced_add_IFDV
                0x00000000        0x0 ./tutorials/JNIenhanced.o
 .bss.result    0x00000000        0x0 ./tutorials/JNIenhanced.o
 .text          0x00000000        0x0 ./tutorials/JNINativeLIBC.o
 .data          0x00000000        0x0 ./tutorials/JNINativeLIBC.o
 .bss           0x00000000        0x0 ./tutorials/JNINativeLIBC.o
 .text.Java_arduino_tutorial_JNINativeLIBC_sin
                0x00000000        0x0 ./tutorials/JNINativeLIBC.o
 .text.native_arduino_tutorial_JNINativeLIBC_sin_DD
                0x00000000        0x0 ./tutorials/JNINativeLIBC.o
 .text          0x00000000        0x0 ./tutorials/JNIsimple.o
 .data          0x00000000        0x0 ./tutorials/JNIsimple.o
 .bss           0x00000000        0x0 ./tutorials/JNIsimple.o
 .text.Java_arduino_tutorial_JNIsimple_add
                0x00000000        0x0 ./tutorials/JNIsimple.o
 .text.native_arduino_tutorial_JNIsimple_add_III
                0x00000000        0x0 ./tutorials/JNIsimple.o
 .text          0x00000000        0x0 ./tutorials/JNI_FieldAccess.o
 .data          0x00000000        0x0 ./tutorials/JNI_FieldAccess.o
 .bss           0x00000000        0x0 ./tutorials/JNI_FieldAccess.o
 .text          0x00000000        0x0 ./tutorials/NativeCVariableClass.o
 .data          0x00000000        0x0 ./tutorials/NativeCVariableClass.o
 .bss           0x00000000        0x0 ./tutorials/NativeCVariableClass.o
 .text._ZN11ResultClass4getDEv
                0x00000000        0x0 ./tutorials/NativeCVariableClass.o
 .text._ZN11ResultClass4getCEv
                0x00000000        0x0 ./tutorials/NativeCVariableClass.o
 .text._ZN11ResultClass3setEi
                0x00000000        0x0 ./tutorials/NativeCVariableClass.o
 .text._Z4getBv
                0x00000000        0x0 ./tutorials/NativeCVariableClass.o
 .text.Java_processing_hardware_arduino_cores_arduino_ResultClass_getB
                0x00000000        0x0 ./tutorials/NativeCVariableClass.o
 .text.Java_processing_hardware_arduino_cores_arduino_ResultClass_getC
                0x00000000        0x0 ./tutorials/NativeCVariableClass.o
 .text.Java_processing_hardware_arduino_cores_arduino_ResultClass_getD
                0x00000000        0x0 ./tutorials/NativeCVariableClass.o
 .text._Z27NativeCVariableEnhanced_setv
                0x00000000        0x0 ./tutorials/NativeCVariableClass.o
 .bss.result4bCpp
                0x00000000        0x0 ./tutorials/NativeCVariableClass.o
 .bss.resultClass
                0x00000000        0x0 ./tutorials/NativeCVariableClass.o
 .text          0x00000000        0x0 ./tutorials/NativeCVariableEnhanced.o
 .data          0x00000000        0x0 ./tutorials/NativeCVariableEnhanced.o
 .bss           0x00000000        0x0 ./tutorials/NativeCVariableEnhanced.o
 .text.NativeCVariableEnhanced_inc
                0x00000000        0x0 ./tutorials/NativeCVariableEnhanced.o
 .data.resultArray
                0x00000000        0x0 ./tutorials/NativeCVariableEnhanced.o
 .data.resultStruct
                0x00000000        0x0 ./tutorials/NativeCVariableEnhanced.o
 COMMON         0x00000000        0x0 ./tutorials/NativeCVariableEnhanced.o
 .text          0x00000000        0x0 ./tutorials/NativeCVariableSimple.o
 .data          0x00000000        0x0 ./tutorials/NativeCVariableSimple.o
 .bss           0x00000000        0x0 ./tutorials/NativeCVariableSimple.o
 .text.Java_arduino_tutorial_NativeCVariableSimple_inc
                0x00000000        0x0 ./tutorials/NativeCVariableSimple.o
 .text.native_arduino_tutorial_NativeCVariableSimple_inc_IV
                0x00000000        0x0 ./tutorials/NativeCVariableSimple.o
 COMMON         0x00000000        0x0 ./tutorials/NativeCVariableSimple.o
 .text          0x00000000        0x0 ./tutorials/ProcessingCLIB.o
 .data          0x00000000        0x0 ./tutorials/ProcessingCLIB.o
 .bss           0x00000000        0x0 ./tutorials/ProcessingCLIB.o
 .data          0x00000000        0x0 d:/software/haikuvm/hardware/tools/avr/bin/../lib/gcc/avr/4.3.2/../../../../avr/lib/avr5\libc.a(exit.o)
 .bss           0x00000000        0x0 d:/software/haikuvm/hardware/tools/avr/bin/../lib/gcc/avr/4.3.2/../../../../avr/lib/avr5\libc.a(exit.o)
 .data          0x00000000        0x0 d:/software/haikuvm/hardware/tools/avr/bin/../lib/gcc/avr/4.3.2/../../../../avr/lib/avr5\libc.a(memcpy_P.o)
 .bss           0x00000000        0x0 d:/software/haikuvm/hardware/tools/avr/bin/../lib/gcc/avr/4.3.2/../../../../avr/lib/avr5\libc.a(memcpy_P.o)
 .text          0x00000000        0x0 d:/software/haikuvm/hardware/tools/avr/bin/../lib/gcc/avr/4.3.2/../../../../avr/lib/avr5\libc.a(memcpy.o)
 .data          0x00000000        0x0 d:/software/haikuvm/hardware/tools/avr/bin/../lib/gcc/avr/4.3.2/../../../../avr/lib/avr5\libc.a(memcpy.o)
 .bss           0x00000000        0x0 d:/software/haikuvm/hardware/tools/avr/bin/../lib/gcc/avr/4.3.2/../../../../avr/lib/avr5\libc.a(memcpy.o)
 .data          0x00000000        0x0 d:/software/haikuvm/hardware/tools/avr/bin/../lib/gcc/avr/4.3.2/../../../../avr/lib/avr5\libc.a(memset.o)
 .bss           0x00000000        0x0 d:/software/haikuvm/hardware/tools/avr/bin/../lib/gcc/avr/4.3.2/../../../../avr/lib/avr5\libc.a(memset.o)
 .text          0x00000000        0x0 d:/software/haikuvm/hardware/tools/avr/bin/../lib/gcc/avr/4.3.2/../../../../avr/lib/avr5\libc.a(printf.o)
 .data          0x00000000        0x0 d:/software/haikuvm/hardware/tools/avr/bin/../lib/gcc/avr/4.3.2/../../../../avr/lib/avr5\libc.a(printf.o)
 .bss           0x00000000        0x0 d:/software/haikuvm/hardware/tools/avr/bin/../lib/gcc/avr/4.3.2/../../../../avr/lib/avr5\libc.a(printf.o)
 .text          0x00000000        0x0 d:/software/haikuvm/hardware/tools/avr/bin/../lib/gcc/avr/4.3.2/../../../../avr/lib/avr5\libc.a(addsf3.o)
 .data          0x00000000        0x0 d:/software/haikuvm/hardware/tools/avr/bin/../lib/gcc/avr/4.3.2/../../../../avr/lib/avr5\libc.a(addsf3.o)
 .bss           0x00000000        0x0 d:/software/haikuvm/hardware/tools/avr/bin/../lib/gcc/avr/4.3.2/../../../../avr/lib/avr5\libc.a(addsf3.o)
 .text.fplib    0x00000000        0x0 d:/software/haikuvm/hardware/tools/avr/bin/../lib/gcc/avr/4.3.2/../../../../avr/lib/avr5\libc.a(addsf3.o)
 .text          0x00000000        0x0 d:/software/haikuvm/hardware/tools/avr/bin/../lib/gcc/avr/4.3.2/../../../../avr/lib/avr5\libc.a(addsf3x.o)
 .data          0x00000000        0x0 d:/software/haikuvm/hardware/tools/avr/bin/../lib/gcc/avr/4.3.2/../../../../avr/lib/avr5\libc.a(addsf3x.o)
 .bss           0x00000000        0x0 d:/software/haikuvm/hardware/tools/avr/bin/../lib/gcc/avr/4.3.2/../../../../avr/lib/avr5\libc.a(addsf3x.o)
 .text.fplib    0x00000000        0x0 d:/software/haikuvm/hardware/tools/avr/bin/../lib/gcc/avr/4.3.2/../../../../avr/lib/avr5\libc.a(addsf3x.o)
 .text          0x00000000        0x0 d:/software/haikuvm/hardware/tools/avr/bin/../lib/gcc/avr/4.3.2/../../../../avr/lib/avr5\libc.a(fixsfsi.o)
 .data          0x00000000        0x0 d:/software/haikuvm/hardware/tools/avr/bin/../lib/gcc/avr/4.3.2/../../../../avr/lib/avr5\libc.a(fixsfsi.o)
 .bss           0x00000000        0x0 d:/software/haikuvm/hardware/tools/avr/bin/../lib/gcc/avr/4.3.2/../../../../avr/lib/avr5\libc.a(fixsfsi.o)
 .text.fplib    0x00000000        0x0 d:/software/haikuvm/hardware/tools/avr/bin/../lib/gcc/avr/4.3.2/../../../../avr/lib/avr5\libc.a(fixsfsi.o)
 .text          0x00000000        0x0 d:/software/haikuvm/hardware/tools/avr/bin/../lib/gcc/avr/4.3.2/../../../../avr/lib/avr5\libc.a(fixunssfsi.o)
 .data          0x00000000        0x0 d:/software/haikuvm/hardware/tools/avr/bin/../lib/gcc/avr/4.3.2/../../../../avr/lib/avr5\libc.a(fixunssfsi.o)
 .bss           0x00000000        0x0 d:/software/haikuvm/hardware/tools/avr/bin/../lib/gcc/avr/4.3.2/../../../../avr/lib/avr5\libc.a(fixunssfsi.o)
 .text.fplib    0x00000000        0x0 d:/software/haikuvm/hardware/tools/avr/bin/../lib/gcc/avr/4.3.2/../../../../avr/lib/avr5\libc.a(fixunssfsi.o)
 .text          0x00000000        0x0 d:/software/haikuvm/hardware/tools/avr/bin/../lib/gcc/avr/4.3.2/../../../../avr/lib/avr5\libc.a(floatsisf.o)
 .data          0x00000000        0x0 d:/software/haikuvm/hardware/tools/avr/bin/../lib/gcc/avr/4.3.2/../../../../avr/lib/avr5\libc.a(floatsisf.o)
 .bss           0x00000000        0x0 d:/software/haikuvm/hardware/tools/avr/bin/../lib/gcc/avr/4.3.2/../../../../avr/lib/avr5\libc.a(floatsisf.o)
 .text.fplib    0x00000000        0x0 d:/software/haikuvm/hardware/tools/avr/bin/../lib/gcc/avr/4.3.2/../../../../avr/lib/avr5\libc.a(floatsisf.o)
 .text          0x00000000        0x0 d:/software/haikuvm/hardware/tools/avr/bin/../lib/gcc/avr/4.3.2/../../../../avr/lib/avr5\libc.a(fp_inf.o)
 .data          0x00000000        0x0 d:/software/haikuvm/hardware/tools/avr/bin/../lib/gcc/avr/4.3.2/../../../../avr/lib/avr5\libc.a(fp_inf.o)
 .bss           0x00000000        0x0 d:/software/haikuvm/hardware/tools/avr/bin/../lib/gcc/avr/4.3.2/../../../../avr/lib/avr5\libc.a(fp_inf.o)
 .text.fplib    0x00000000        0x0 d:/software/haikuvm/hardware/tools/avr/bin/../lib/gcc/avr/4.3.2/../../../../avr/lib/avr5\libc.a(fp_inf.o)
 .text          0x00000000        0x0 d:/software/haikuvm/hardware/tools/avr/bin/../lib/gcc/avr/4.3.2/../../../../avr/lib/avr5\libc.a(fp_nan.o)
 .data          0x00000000        0x0 d:/software/haikuvm/hardware/tools/avr/bin/../lib/gcc/avr/4.3.2/../../../../avr/lib/avr5\libc.a(fp_nan.o)
 .bss           0x00000000        0x0 d:/software/haikuvm/hardware/tools/avr/bin/../lib/gcc/avr/4.3.2/../../../../avr/lib/avr5\libc.a(fp_nan.o)
 .text.fplib    0x00000000        0x0 d:/software/haikuvm/hardware/tools/avr/bin/../lib/gcc/avr/4.3.2/../../../../avr/lib/avr5\libc.a(fp_nan.o)
 .text          0x00000000        0x0 d:/software/haikuvm/hardware/tools/avr/bin/../lib/gcc/avr/4.3.2/../../../../avr/lib/avr5\libc.a(fp_pscA.o)
 .data          0x00000000        0x0 d:/software/haikuvm/hardware/tools/avr/bin/../lib/gcc/avr/4.3.2/../../../../avr/lib/avr5\libc.a(fp_pscA.o)
 .bss           0x00000000        0x0 d:/software/haikuvm/hardware/tools/avr/bin/../lib/gcc/avr/4.3.2/../../../../avr/lib/avr5\libc.a(fp_pscA.o)
 .text.fplib    0x00000000        0x0 d:/software/haikuvm/hardware/tools/avr/bin/../lib/gcc/avr/4.3.2/../../../../avr/lib/avr5\libc.a(fp_pscA.o)
 .text          0x00000000        0x0 d:/software/haikuvm/hardware/tools/avr/bin/../lib/gcc/avr/4.3.2/../../../../avr/lib/avr5\libc.a(fp_pscB.o)
 .data          0x00000000        0x0 d:/software/haikuvm/hardware/tools/avr/bin/../lib/gcc/avr/4.3.2/../../../../avr/lib/avr5\libc.a(fp_pscB.o)
 .bss           0x00000000        0x0 d:/software/haikuvm/hardware/tools/avr/bin/../lib/gcc/avr/4.3.2/../../../../avr/lib/avr5\libc.a(fp_pscB.o)
 .text.fplib    0x00000000        0x0 d:/software/haikuvm/hardware/tools/avr/bin/../lib/gcc/avr/4.3.2/../../../../avr/lib/avr5\libc.a(fp_pscB.o)
 .text          0x00000000        0x0 d:/software/haikuvm/hardware/tools/avr/bin/../lib/gcc/avr/4.3.2/../../../../avr/lib/avr5\libc.a(fp_round.o)
 .data          0x00000000        0x0 d:/software/haikuvm/hardware/tools/avr/bin/../lib/gcc/avr/4.3.2/../../../../avr/lib/avr5\libc.a(fp_round.o)
 .bss           0x00000000        0x0 d:/software/haikuvm/hardware/tools/avr/bin/../lib/gcc/avr/4.3.2/../../../../avr/lib/avr5\libc.a(fp_round.o)
 .text.fplib    0x00000000        0x0 d:/software/haikuvm/hardware/tools/avr/bin/../lib/gcc/avr/4.3.2/../../../../avr/lib/avr5\libc.a(fp_round.o)
 .text          0x00000000        0x0 d:/software/haikuvm/hardware/tools/avr/bin/../lib/gcc/avr/4.3.2/../../../../avr/lib/avr5\libc.a(fp_split3.o)
 .data          0x00000000        0x0 d:/software/haikuvm/hardware/tools/avr/bin/../lib/gcc/avr/4.3.2/../../../../avr/lib/avr5\libc.a(fp_split3.o)
 .bss           0x00000000        0x0 d:/software/haikuvm/hardware/tools/avr/bin/../lib/gcc/avr/4.3.2/../../../../avr/lib/avr5\libc.a(fp_split3.o)
 .text.fplib    0x00000000        0x0 d:/software/haikuvm/hardware/tools/avr/bin/../lib/gcc/avr/4.3.2/../../../../avr/lib/avr5\libc.a(fp_split3.o)
 .text          0x00000000        0x0 d:/software/haikuvm/hardware/tools/avr/bin/../lib/gcc/avr/4.3.2/../../../../avr/lib/avr5\libc.a(fp_zero.o)
 .data          0x00000000        0x0 d:/software/haikuvm/hardware/tools/avr/bin/../lib/gcc/avr/4.3.2/../../../../avr/lib/avr5\libc.a(fp_zero.o)
 .bss           0x00000000        0x0 d:/software/haikuvm/hardware/tools/avr/bin/../lib/gcc/avr/4.3.2/../../../../avr/lib/avr5\libc.a(fp_zero.o)
 .text.fplib    0x00000000        0x0 d:/software/haikuvm/hardware/tools/avr/bin/../lib/gcc/avr/4.3.2/../../../../avr/lib/avr5\libc.a(fp_zero.o)
 .text          0x00000000        0x0 d:/software/haikuvm/hardware/tools/avr/bin/../lib/gcc/avr/4.3.2/../../../../avr/lib/avr5\libc.a(sin.o)
 .data          0x00000000        0x0 d:/software/haikuvm/hardware/tools/avr/bin/../lib/gcc/avr/4.3.2/../../../../avr/lib/avr5\libc.a(sin.o)
 .bss           0x00000000        0x0 d:/software/haikuvm/hardware/tools/avr/bin/../lib/gcc/avr/4.3.2/../../../../avr/lib/avr5\libc.a(sin.o)
 .text.fplib    0x00000000        0x0 d:/software/haikuvm/hardware/tools/avr/bin/../lib/gcc/avr/4.3.2/../../../../avr/lib/avr5\libc.a(sin.o)
 .text          0x00000000        0x0 d:/software/haikuvm/hardware/tools/avr/bin/../lib/gcc/avr/4.3.2/../../../../avr/lib/avr5\libc.a(vfprintf_std.o)
 .data          0x00000000        0x0 d:/software/haikuvm/hardware/tools/avr/bin/../lib/gcc/avr/4.3.2/../../../../avr/lib/avr5\libc.a(vfprintf_std.o)
 .bss           0x00000000        0x0 d:/software/haikuvm/hardware/tools/avr/bin/../lib/gcc/avr/4.3.2/../../../../avr/lib/avr5\libc.a(vfprintf_std.o)
 .text          0x00000000        0x0 d:/software/haikuvm/hardware/tools/avr/bin/../lib/gcc/avr/4.3.2/../../../../avr/lib/avr5\libc.a(strnlen_P.o)
 .data          0x00000000        0x0 d:/software/haikuvm/hardware/tools/avr/bin/../lib/gcc/avr/4.3.2/../../../../avr/lib/avr5\libc.a(strnlen_P.o)
 .bss           0x00000000        0x0 d:/software/haikuvm/hardware/tools/avr/bin/../lib/gcc/avr/4.3.2/../../../../avr/lib/avr5\libc.a(strnlen_P.o)
 .text          0x00000000        0x0 d:/software/haikuvm/hardware/tools/avr/bin/../lib/gcc/avr/4.3.2/../../../../avr/lib/avr5\libc.a(strnlen.o)
 .data          0x00000000        0x0 d:/software/haikuvm/hardware/tools/avr/bin/../lib/gcc/avr/4.3.2/../../../../avr/lib/avr5\libc.a(strnlen.o)
 .bss           0x00000000        0x0 d:/software/haikuvm/hardware/tools/avr/bin/../lib/gcc/avr/4.3.2/../../../../avr/lib/avr5\libc.a(strnlen.o)
 .text          0x00000000        0x0 d:/software/haikuvm/hardware/tools/avr/bin/../lib/gcc/avr/4.3.2/../../../../avr/lib/avr5\libc.a(fputc.o)
 .data          0x00000000        0x0 d:/software/haikuvm/hardware/tools/avr/bin/../lib/gcc/avr/4.3.2/../../../../avr/lib/avr5\libc.a(fputc.o)
 .bss           0x00000000        0x0 d:/software/haikuvm/hardware/tools/avr/bin/../lib/gcc/avr/4.3.2/../../../../avr/lib/avr5\libc.a(fputc.o)
 .text          0x00000000        0x0 d:/software/haikuvm/hardware/tools/avr/bin/../lib/gcc/avr/4.3.2/../../../../avr/lib/avr5\libc.a(iob.o)
 .data          0x00000000        0x0 d:/software/haikuvm/hardware/tools/avr/bin/../lib/gcc/avr/4.3.2/../../../../avr/lib/avr5\libc.a(iob.o)
 .bss           0x00000000        0x0 d:/software/haikuvm/hardware/tools/avr/bin/../lib/gcc/avr/4.3.2/../../../../avr/lib/avr5\libc.a(iob.o)
 COMMON         0x00000000        0x0 d:/software/haikuvm/hardware/tools/avr/bin/../lib/gcc/avr/4.3.2/../../../../avr/lib/avr5\libc.a(iob.o)
 .text          0x00000000        0x0 d:/software/haikuvm/hardware/tools/avr/bin/../lib/gcc/avr/4.3.2/../../../../avr/lib/avr5\libc.a(ultoa_invert.o)
 .data          0x00000000        0x0 d:/software/haikuvm/hardware/tools/avr/bin/../lib/gcc/avr/4.3.2/../../../../avr/lib/avr5\libc.a(ultoa_invert.o)
 .bss           0x00000000        0x0 d:/software/haikuvm/hardware/tools/avr/bin/../lib/gcc/avr/4.3.2/../../../../avr/lib/avr5\libc.a(ultoa_invert.o)
 .text          0x00000000        0x0 d:/software/haikuvm/hardware/tools/avr/bin/../lib/gcc/avr/4.3.2/../../../../avr/lib/avr5\libc.a(fp_rempio2.o)
 .data          0x00000000        0x0 d:/software/haikuvm/hardware/tools/avr/bin/../lib/gcc/avr/4.3.2/../../../../avr/lib/avr5\libc.a(fp_rempio2.o)
 .bss           0x00000000        0x0 d:/software/haikuvm/hardware/tools/avr/bin/../lib/gcc/avr/4.3.2/../../../../avr/lib/avr5\libc.a(fp_rempio2.o)
 .text.fplib    0x00000000        0x0 d:/software/haikuvm/hardware/tools/avr/bin/../lib/gcc/avr/4.3.2/../../../../avr/lib/avr5\libc.a(fp_rempio2.o)
 .text          0x00000000        0x0 d:/software/haikuvm/hardware/tools/avr/bin/../lib/gcc/avr/4.3.2/../../../../avr/lib/avr5\libc.a(fp_sinus.o)
 .data          0x00000000        0x0 d:/software/haikuvm/hardware/tools/avr/bin/../lib/gcc/avr/4.3.2/../../../../avr/lib/avr5\libc.a(fp_sinus.o)
 .bss           0x00000000        0x0 d:/software/haikuvm/hardware/tools/avr/bin/../lib/gcc/avr/4.3.2/../../../../avr/lib/avr5\libc.a(fp_sinus.o)
 .text.fplib    0x00000000        0x0 d:/software/haikuvm/hardware/tools/avr/bin/../lib/gcc/avr/4.3.2/../../../../avr/lib/avr5\libc.a(fp_sinus.o)
 .progmem.gcc_fplib
                0x00000000        0x0 d:/software/haikuvm/hardware/tools/avr/bin/../lib/gcc/avr/4.3.2/../../../../avr/lib/avr5\libc.a(fp_sinus.o)
 .text          0x00000000        0x0 d:/software/haikuvm/hardware/tools/avr/bin/../lib/gcc/avr/4.3.2/../../../../avr/lib/avr5\libc.a(fp_mpack.o)
 .data          0x00000000        0x0 d:/software/haikuvm/hardware/tools/avr/bin/../lib/gcc/avr/4.3.2/../../../../avr/lib/avr5\libc.a(fp_mpack.o)
 .bss           0x00000000        0x0 d:/software/haikuvm/hardware/tools/avr/bin/../lib/gcc/avr/4.3.2/../../../../avr/lib/avr5\libc.a(fp_mpack.o)
 .text.fplib    0x00000000        0x0 d:/software/haikuvm/hardware/tools/avr/bin/../lib/gcc/avr/4.3.2/../../../../avr/lib/avr5\libc.a(fp_mpack.o)
 .text          0x00000000        0x0 d:/software/haikuvm/hardware/tools/avr/bin/../lib/gcc/avr/4.3.2/../../../../avr/lib/avr5\libc.a(fp_powsodd.o)
 .data          0x00000000        0x0 d:/software/haikuvm/hardware/tools/avr/bin/../lib/gcc/avr/4.3.2/../../../../avr/lib/avr5\libc.a(fp_powsodd.o)
 .bss           0x00000000        0x0 d:/software/haikuvm/hardware/tools/avr/bin/../lib/gcc/avr/4.3.2/../../../../avr/lib/avr5\libc.a(fp_powsodd.o)
 .text.fplib    0x00000000        0x0 d:/software/haikuvm/hardware/tools/avr/bin/../lib/gcc/avr/4.3.2/../../../../avr/lib/avr5\libc.a(fp_powsodd.o)
 .text          0x00000000        0x0 d:/software/haikuvm/hardware/tools/avr/bin/../lib/gcc/avr/4.3.2/../../../../avr/lib/avr5\libc.a(mulsf3.o)
 .data          0x00000000        0x0 d:/software/haikuvm/hardware/tools/avr/bin/../lib/gcc/avr/4.3.2/../../../../avr/lib/avr5\libc.a(mulsf3.o)
 .bss           0x00000000        0x0 d:/software/haikuvm/hardware/tools/avr/bin/../lib/gcc/avr/4.3.2/../../../../avr/lib/avr5\libc.a(mulsf3.o)
 .text.fplib    0x00000000        0x0 d:/software/haikuvm/hardware/tools/avr/bin/../lib/gcc/avr/4.3.2/../../../../avr/lib/avr5\libc.a(mulsf3.o)
 .text          0x00000000        0x0 d:/software/haikuvm/hardware/tools/avr/bin/../lib/gcc/avr/4.3.2/../../../../avr/lib/avr5\libc.a(mulsf3x.o)
 .data          0x00000000        0x0 d:/software/haikuvm/hardware/tools/avr/bin/../lib/gcc/avr/4.3.2/../../../../avr/lib/avr5\libc.a(mulsf3x.o)
 .bss           0x00000000        0x0 d:/software/haikuvm/hardware/tools/avr/bin/../lib/gcc/avr/4.3.2/../../../../avr/lib/avr5\libc.a(mulsf3x.o)
 .text.fplib    0x00000000        0x0 d:/software/haikuvm/hardware/tools/avr/bin/../lib/gcc/avr/4.3.2/../../../../avr/lib/avr5\libc.a(mulsf3x.o)
 .text          0x00000000        0x0 d:/software/haikuvm/hardware/tools/avr/bin/../lib/gcc/avr/4.3.2/../../../../avr/lib/avr5\libc.a(fp_powser.o)
 .data          0x00000000        0x0 d:/software/haikuvm/hardware/tools/avr/bin/../lib/gcc/avr/4.3.2/../../../../avr/lib/avr5\libc.a(fp_powser.o)
 .bss           0x00000000        0x0 d:/software/haikuvm/hardware/tools/avr/bin/../lib/gcc/avr/4.3.2/../../../../avr/lib/avr5\libc.a(fp_powser.o)
 .text.fplib    0x00000000        0x0 d:/software/haikuvm/hardware/tools/avr/bin/../lib/gcc/avr/4.3.2/../../../../avr/lib/avr5\libc.a(fp_powser.o)
 .text          0x00000000        0x0 d:/software/haikuvm/hardware/tools/avr/bin/../lib/gcc/avr/4.3.2/avr5\libgcc.a(_udivmodhi4.o)
 .data          0x00000000        0x0 d:/software/haikuvm/hardware/tools/avr/bin/../lib/gcc/avr/4.3.2/avr5\libgcc.a(_udivmodhi4.o)
 .bss           0x00000000        0x0 d:/software/haikuvm/hardware/tools/avr/bin/../lib/gcc/avr/4.3.2/avr5\libgcc.a(_udivmodhi4.o)
 .text          0x00000000        0x0 d:/software/haikuvm/hardware/tools/avr/bin/../lib/gcc/avr/4.3.2/avr5\libgcc.a(_divmodhi4.o)
 .data          0x00000000        0x0 d:/software/haikuvm/hardware/tools/avr/bin/../lib/gcc/avr/4.3.2/avr5\libgcc.a(_divmodhi4.o)
 .bss           0x00000000        0x0 d:/software/haikuvm/hardware/tools/avr/bin/../lib/gcc/avr/4.3.2/avr5\libgcc.a(_divmodhi4.o)
 .text          0x00000000        0x0 d:/software/haikuvm/hardware/tools/avr/bin/../lib/gcc/avr/4.3.2/avr5\libgcc.a(_udivmodsi4.o)
 .data          0x00000000        0x0 d:/software/haikuvm/hardware/tools/avr/bin/../lib/gcc/avr/4.3.2/avr5\libgcc.a(_udivmodsi4.o)
 .bss           0x00000000        0x0 d:/software/haikuvm/hardware/tools/avr/bin/../lib/gcc/avr/4.3.2/avr5\libgcc.a(_udivmodsi4.o)
 .text          0x00000000        0x0 d:/software/haikuvm/hardware/tools/avr/bin/../lib/gcc/avr/4.3.2/avr5\libgcc.a(_prologue.o)
 .data          0x00000000        0x0 d:/software/haikuvm/hardware/tools/avr/bin/../lib/gcc/avr/4.3.2/avr5\libgcc.a(_prologue.o)
 .bss           0x00000000        0x0 d:/software/haikuvm/hardware/tools/avr/bin/../lib/gcc/avr/4.3.2/avr5\libgcc.a(_prologue.o)
 .text.libgcc   0x00000000        0x0 d:/software/haikuvm/hardware/tools/avr/bin/../lib/gcc/avr/4.3.2/avr5\libgcc.a(_prologue.o)
 .text          0x00000000        0x0 d:/software/haikuvm/hardware/tools/avr/bin/../lib/gcc/avr/4.3.2/avr5\libgcc.a(_epilogue.o)
 .data          0x00000000        0x0 d:/software/haikuvm/hardware/tools/avr/bin/../lib/gcc/avr/4.3.2/avr5\libgcc.a(_epilogue.o)
 .bss           0x00000000        0x0 d:/software/haikuvm/hardware/tools/avr/bin/../lib/gcc/avr/4.3.2/avr5\libgcc.a(_epilogue.o)
 .text.libgcc   0x00000000        0x0 d:/software/haikuvm/hardware/tools/avr/bin/../lib/gcc/avr/4.3.2/avr5\libgcc.a(_epilogue.o)
 .text          0x00000000        0x0 d:/software/haikuvm/hardware/tools/avr/bin/../lib/gcc/avr/4.3.2/avr5\libgcc.a(_exit.o)
 .data          0x00000000        0x0 d:/software/haikuvm/hardware/tools/avr/bin/../lib/gcc/avr/4.3.2/avr5\libgcc.a(_exit.o)
 .bss           0x00000000        0x0 d:/software/haikuvm/hardware/tools/avr/bin/../lib/gcc/avr/4.3.2/avr5\libgcc.a(_exit.o)
 .text.libgcc   0x00000000        0x0 d:/software/haikuvm/hardware/tools/avr/bin/../lib/gcc/avr/4.3.2/avr5\libgcc.a(_exit.o)
 .text          0x00000000        0x0 d:/software/haikuvm/hardware/tools/avr/bin/../lib/gcc/avr/4.3.2/avr5\libgcc.a(_copy_data.o)
 .data          0x00000000        0x0 d:/software/haikuvm/hardware/tools/avr/bin/../lib/gcc/avr/4.3.2/avr5\libgcc.a(_copy_data.o)
 .bss           0x00000000        0x0 d:/software/haikuvm/hardware/tools/avr/bin/../lib/gcc/avr/4.3.2/avr5\libgcc.a(_copy_data.o)
 .text.libgcc   0x00000000        0x0 d:/software/haikuvm/hardware/tools/avr/bin/../lib/gcc/avr/4.3.2/avr5\libgcc.a(_copy_data.o)
 .text          0x00000000        0x0 d:/software/haikuvm/hardware/tools/avr/bin/../lib/gcc/avr/4.3.2/avr5\libgcc.a(_clear_bss.o)
 .data          0x00000000        0x0 d:/software/haikuvm/hardware/tools/avr/bin/../lib/gcc/avr/4.3.2/avr5\libgcc.a(_clear_bss.o)
 .bss           0x00000000        0x0 d:/software/haikuvm/hardware/tools/avr/bin/../lib/gcc/avr/4.3.2/avr5\libgcc.a(_clear_bss.o)
 .text.libgcc   0x00000000        0x0 d:/software/haikuvm/hardware/tools/avr/bin/../lib/gcc/avr/4.3.2/avr5\libgcc.a(_clear_bss.o)

Memory Configuration

Name             Origin             Length             Attributes
text             0x00000000         0x00020000         xr
data             0x00800060         0x0000ffa0         rw !x
eeprom           0x00810000         0x00010000         rw !x
fuse             0x00820000         0x00000400         rw !x
lock             0x00830000         0x00000400         rw !x
signature        0x00840000         0x00000400         rw !x
*default*        0x00000000         0xffffffff

Linker script and memory map

Address of section .data set to 0x800100
LOAD d:/software/haikuvm/hardware/tools/avr/bin/../lib/gcc/avr/4.3.2/../../../../avr/lib/avr5/crtm328p.o
LOAD ./HaikuVM/examples/HaikuVM/HaikuVMUsingArduinoIDE.o
LOAD ./HaikuVM/utility/haikuConfig.o
LOAD ./HaikuVM/utility/haikuJava.o
LOAD ./HaikuVM/utility/haikuJNI.o
LOAD ./HaikuVM/utility/NativeCFunctions.o
LOAD ./HaikuVM/HaikuAppMain.o
LOAD ./HaikuVM/haikuJ2C.o
LOAD ./HaikuVM/haikuJavaNatives.o
LOAD ./HaikuVM/halfprecision.o
LOAD ./HaikuVM/heap.o
LOAD ./HaikuVM/JVM.o
LOAD ./HaikuVM/romspace.o
LOAD ./HaikuVM/simpleOS.o
LOAD ./tutorials/ArduinoUsingCLIB.o
LOAD ./tutorials/interruptTimer2.o
LOAD ./tutorials/JNIenhanced.o
LOAD ./tutorials/JNINativeLIBC.o
LOAD ./tutorials/JNIsimple.o
LOAD ./tutorials/JNI_FieldAccess.o
LOAD ./tutorials/NativeCVariableClass.o
LOAD ./tutorials/NativeCVariableEnhanced.o
LOAD ./tutorials/NativeCVariableSimple.o
LOAD ./tutorials/ProcessingCLIB.o
LOAD d:/software/haikuvm/hardware/tools/avr/bin/../lib/gcc/avr/4.3.2/../../../../avr/lib/avr5\libc.a
LOAD d:/software/haikuvm/hardware/tools/avr/bin/../lib/gcc/avr/4.3.2/avr5\libgcc.a
LOAD d:/software/haikuvm/hardware/tools/avr/bin/../lib/gcc/avr/4.3.2/../../../../avr/lib/avr5\libm.a
LOAD d:/software/haikuvm/hardware/tools/avr/bin/../lib/gcc/avr/4.3.2/../../../../avr/lib/avr5\libc.a
LOAD d:/software/haikuvm/hardware/tools/avr/bin/../lib/gcc/avr/4.3.2/avr5\libgcc.a
LOAD d:/software/haikuvm/hardware/tools/avr/bin/../lib/gcc/avr/4.3.2/../../../../avr/lib/avr5\libc.a
LOAD d:/software/haikuvm/hardware/tools/avr/bin/../lib/gcc/avr/4.3.2/avr5\libgcc.a

.hash
 *(.hash)

.dynsym
 *(.dynsym)

.dynstr
 *(.dynstr)

.gnu.version
 *(.gnu.version)

.gnu.version_d
 *(.gnu.version_d)

.gnu.version_r
 *(.gnu.version_r)

.rel.init
 *(.rel.init)

.rela.init
 *(.rela.init)

.rel.text
 *(.rel.text)
 *(.rel.text.*)
 *(.rel.gnu.linkonce.t*)

.rela.text
 *(.rela.text)
 *(.rela.text.*)
 *(.rela.gnu.linkonce.t*)

.rel.fini
 *(.rel.fini)

.rela.fini
 *(.rela.fini)

.rel.rodata
 *(.rel.rodata)
 *(.rel.rodata.*)
 *(.rel.gnu.linkonce.r*)

.rela.rodata
 *(.rela.rodata)
 *(.rela.rodata.*)
 *(.rela.gnu.linkonce.r*)

.rel.data
 *(.rel.data)
 *(.rel.data.*)
 *(.rel.gnu.linkonce.d*)

.rela.data
 *(.rela.data)
 *(.rela.data.*)
 *(.rela.gnu.linkonce.d*)

.rel.ctors
 *(.rel.ctors)

.rela.ctors
 *(.rela.ctors)

.rel.dtors
 *(.rel.dtors)

.rela.dtors
 *(.rela.dtors)

.rel.got
 *(.rel.got)

.rela.got
 *(.rela.got)

.rel.bss
 *(.rel.bss)

.rela.bss
 *(.rela.bss)

.rel.plt
 *(.rel.plt)

.rela.plt
 *(.rela.plt)

.text           0x00000000     0x130a
 *(.vectors)
 .vectors       0x00000000       0x68 d:/software/haikuvm/hardware/tools/avr/bin/../lib/gcc/avr/4.3.2/../../../../avr/lib/avr5/crtm328p.o
                0x00000000                __vectors
                0x00000000                __vector_default
 *(.vectors)
 *(.progmem.gcc*)
 *(.progmem*)
 .progmem.data  0x00000068       0x7d ./HaikuVM/utility/haikuConfig.o
                0x00000068                Const0000
                0x00000073                Const0003
                0x0000007c                Const0004
                0x00000083                exceptionTable
                0x0000006e                Const0001
                0x00000070                Const0002
                0x0000009b                functionTable
 .progmem.data  0x000000e5      0x371 ./HaikuVM/utility/haikuJava.o
                0x00000126                java_io_PrintStream__init__Ljava_io_OutputStream_V
                0x000003a5                haiku_vm_MicroKernel_clinitHaikuMagic_V
                0x000002a1                java_lang_StringBuilder_append_CLjava_lang_StringBuilder
                0x00000346                java_lang_Throwable__class
                0x0000038f                haiku_avr_lib_arduino_HaikuMicroKernelEx_2__init(void) volatile
                0x00000363                haiku_avr_lib_arduino_HaikuMicroKernelEx_1__init(void) volatile
                0x0000025b                java_lang_StringBuilder_append_Ljava_lang_String_Ljava_lang_StringBuilder
                0x000002e7                java_lang_Object__class
                0x000001e4                java_lang_String_toString_Ljava_lang_String
                0x000002fd                java_lang_Thread_stop_V
                0x000002f8                java_lang_System__class
                0x000001d1                java_lang_String_length_I
                0x000002b9                java_lang_StringBuilder__class
                0x00000385                haiku_avr_ATmega328p__class
                0x00000197                YC__class
                0x0000032c                java_lang_Thread_currentThread_Ljava_lang_Thread
                0x000002f5                java_lang_System_getDataAddress_Ljava_lang_Object_I
                0x00000433                haiku_avr_AVRDefines_sei_V
                0x0000016a                java_io_PrintStream_print_CV
                0x0000033e                java_lang_Throwable_toString_Ljava_lang_String
                0x00000333                java_lang_Thread_setStateAndSwitch_II
                0x000002ce                java_lang_Object_toString_Ljava_lang_String
                0x000001c0                java_lang_String__init(void) const volatile
                0x00000189                java_io_PrintStream__class
                0x0000037d                haiku_avr_lib_arduino_HaikuMicroKernelEx_1__class
                0x000002ca                java_lang_Object__init(void) volatile
                0x0000035e                java_io_OutputStream__class
                0x00000451                ru_timreset_Test__class
                0x00000131                java_io_PrintStream_print_Ljava_lang_String_V
                0x000001da                java_lang_String_charAt_IC
                0x00000369                haiku_avr_lib_arduino_HaikuMicroKernelEx_1_write_IV
                0x000002ef                java_lang_System_identityHashCode_Ljava_lang_Object_I
                0x00000104                main_YLjava_lang_String
                0x00000336                java_lang_Thread__class
                0x000000e5                haiku_avr_lib_arduino_HaikuMicroKernelEx_init_V
                0x0000038a                haiku_avr_AVRConstants__class
                0x00000353                java_lang_Exception__class
                0x00000395                haiku_avr_lib_arduino_HaikuMicroKernelEx_2__class
                0x0000043f                haiku_avr_AVRDefines__class
                0x00000358                java_io_OutputStream__init(void) volatile
                0x0000019c                java_lang_String__init__YCV
                0x00000233                java_lang_String__class
                0x0000039a                java_io_InputStream__init(void) volatile
                0x0000015b                java_io_PrintStream_println_Ljava_lang_String_V
                0x0000024e                java_lang_StringBuilder_toString_Ljava_lang_String
                0x0000042c                haiku_avr_AVRDefines__BV_II
                0x00000437                haiku_avr_AVRDefines__clinit(void) volatile
                0x00000121                haiku_avr_lib_arduino_HaikuMicroKernelEx__class
                0x0000034e                java_io_IOException__class
                0x000002af                java_lang_StringBuilder_append_ILjava_lang_StringBuilder
                0x000001e9                java_lang_String_valueOf_ILjava_lang_String
                0x00000241                java_lang_StringBuilder__init(void) volatile
                0x00000427                haiku_avr_lib_arduino_ArduinoLib__class
                0x000003b1                haiku_avr_lib_arduino_ArduinoLib_init_V
                0x000003a0                java_io_InputStream__class
                0x000003ac                haiku_vm_MicroKernel__class
                0x00000444                ru_timreset_Test_main_YLjava_lang_String_V
 .progmem.data  0x00000456        0x9 ./HaikuVM/haikuJ2C.o
                0x00000456                defs
 .progmem.data  0x0000045f       0xc2 ./HaikuVM/JVM.o
                0x00000522                . = ALIGN (0x2)
 *fill*         0x00000521        0x1 00
                0x00000522                __trampolines_start = .
 *(.trampolines)
 .trampolines   0x00000522        0x0 linker stubs
 *(.trampolines*)
                0x00000522                __trampolines_end = .
 *(.jumptables)
 *(.jumptables*)
 *(.lowtext)
 *(.lowtext*)
                0x00000522                __ctors_start = .
 *(.ctors)
                0x00000522                __ctors_end = .
                0x00000522                __dtors_start = .
 *(.dtors)
                0x00000522                __dtors_end = .
 SORT(*)(.ctors)
 SORT(*)(.dtors)
 *(.init0)
 .init0         0x00000522        0x0 d:/software/haikuvm/hardware/tools/avr/bin/../lib/gcc/avr/4.3.2/../../../../avr/lib/avr5/crtm328p.o
                0x00000522                __init
 *(.init0)
 *(.init1)
 *(.init1)
 *(.init2)
 .init2         0x00000522        0xc d:/software/haikuvm/hardware/tools/avr/bin/../lib/gcc/avr/4.3.2/../../../../avr/lib/avr5/crtm328p.o
 *(.init2)
 *(.init3)
 *(.init3)
 *(.init4)
 .init4         0x0000052e       0x16 d:/software/haikuvm/hardware/tools/avr/bin/../lib/gcc/avr/4.3.2/avr5\libgcc.a(_copy_data.o)
                0x0000052e                __do_copy_data
 .init4         0x00000544       0x10 d:/software/haikuvm/hardware/tools/avr/bin/../lib/gcc/avr/4.3.2/avr5\libgcc.a(_clear_bss.o)
                0x00000544                __do_clear_bss
 *(.init4)
 *(.init5)
 *(.init5)
 *(.init6)
 *(.init6)
 *(.init7)
 *(.init7)
 *(.init8)
 *(.init8)
 *(.init9)
 .init9         0x00000554        0x8 d:/software/haikuvm/hardware/tools/avr/bin/../lib/gcc/avr/4.3.2/../../../../avr/lib/avr5/crtm328p.o
 *(.init9)
 *(.text)
 .text          0x0000055c        0x4 d:/software/haikuvm/hardware/tools/avr/bin/../lib/gcc/avr/4.3.2/../../../../avr/lib/avr5/crtm328p.o
                0x0000055c                __vector_22
                0x0000055c                __vector_1
                0x0000055c                __vector_24
                0x0000055c                __vector_12
                0x0000055c                __bad_interrupt
                0x0000055c                __vector_6
                0x0000055c                __vector_3
                0x0000055c                __vector_23
                0x0000055c                __vector_25
                0x0000055c                __vector_11
                0x0000055c                __vector_13
                0x0000055c                __vector_17
                0x0000055c                __vector_19
                0x0000055c                __vector_7
                0x0000055c                __vector_5
                0x0000055c                __vector_4
                0x0000055c                __vector_9
                0x0000055c                __vector_2
                0x0000055c                __vector_21
                0x0000055c                __vector_15
                0x0000055c                __vector_8
                0x0000055c                __vector_14
                0x0000055c                __vector_10
                0x0000055c                __vector_18
                0x0000055c                __vector_20
 .text          0x00000560        0x6 d:/software/haikuvm/hardware/tools/avr/bin/../lib/gcc/avr/4.3.2/../../../../avr/lib/avr5\libc.a(exit.o)
                0x00000560                exit
 .text          0x00000566       0x12 d:/software/haikuvm/hardware/tools/avr/bin/../lib/gcc/avr/4.3.2/../../../../avr/lib/avr5\libc.a(memcpy_P.o)
                0x00000566                memcpy_P
 .text          0x00000578        0xe d:/software/haikuvm/hardware/tools/avr/bin/../lib/gcc/avr/4.3.2/../../../../avr/lib/avr5\libc.a(memset.o)
                0x00000578                memset
                0x00000586                . = ALIGN (0x2)
 *(.text.*)
 .text.main     0x00000586        0xa ./HaikuVM/HaikuAppMain.o
                0x00000586                main
 .text.panic    0x00000590        0x2 ./HaikuVM/haikuJ2C.o
                0x00000590                panic
 .text.getMethod
                0x00000592       0xa0 ./HaikuVM/haikuJ2C.o
                0x00000592                getMethod
 .text.push     0x00000632       0x1c ./HaikuVM/haikuJ2C.o
                0x00000632                push
 .text.getLocal
                0x0000064e       0x14 ./HaikuVM/haikuJ2C.o
                0x0000064e                getLocal
 .text.setLocal
                0x00000662       0x1c ./HaikuVM/haikuJ2C.o
                0x00000662                setLocal
 .text.pushTop  0x0000067e       0x14 ./HaikuVM/haikuJ2C.o
                0x0000067e                pushTop
 .text.pop      0x00000692       0x18 ./HaikuVM/haikuJ2C.o
                0x00000692                pop
 .text.popTop   0x000006aa       0x14 ./HaikuVM/haikuJ2C.o
                0x000006aa                popTop
 .text.apop     0x000006be        0xc ./HaikuVM/haikuJ2C.o
                0x000006be                apop
 .text.ipop     0x000006ca        0xc ./HaikuVM/haikuJ2C.o
                0x000006ca                ipop
 .text.areturn  0x000006d6       0x74 ./HaikuVM/haikuJ2C.o
                0x000006d6                areturn
 .text.invoke   0x0000074a      0x17e ./HaikuVM/haikuJ2C.o
                0x0000074a                invoke
 .text.getField
                0x000008c8       0x28 ./HaikuVM/haikuJ2C.o
                0x000008c8                getField
 .text.compare  0x000008f0       0x46 ./HaikuVM/haikuJ2C.o
                0x000008f0                compare
 .text.ldc      0x00000936       0x9c ./HaikuVM/haikuJ2C.o
                0x00000936                ldc
 .text.native_java_lang_System_getDataAddress_Ljava_lang_Object_I
                0x000009d2        0x2 ./HaikuVM/haikuJavaNatives.o
                0x000009d2                native_java_lang_System_getDataAddress_Ljava_lang_Object_I
 .text.native_java_lang_Thread_setStateAndSwitch_II
                0x000009d4       0x18 ./HaikuVM/haikuJavaNatives.o
                0x000009d4                native_java_lang_Thread_setStateAndSwitch_II
 .text.getObjLength
                0x000009ec        0xe ./HaikuVM/heap.o
                0x000009ec                getObjLength
 .text.setMark  0x000009fa       0x7e ./HaikuVM/heap.o
 .text.native_java_lang_System_gc_V
                0x00000a78      0x132 ./HaikuVM/heap.o
                0x00000a78                native_java_lang_System_gc_V
 .text.GCalloc  0x00000baa      0x128 ./HaikuVM/heap.o
                0x00000baa                GCalloc
 .text.newarray
                0x00000cd2       0x3e ./HaikuVM/heap.o
                0x00000cd2                newarray
 .text.newStack
                0x00000d10        0xa ./HaikuVM/heap.o
                0x00000d10                newStack
 .text.newInstance
                0x00000d1a        0xe ./HaikuVM/heap.o
                0x00000d1a                newInstance
 .text.GETCODEWORD2
                0x00000d28       0x1c ./HaikuVM/JVM.o
                0x00000d28                GETCODEWORD2
 .text.GETCODEBYTE2
                0x00000d44       0x18 ./HaikuVM/JVM.o
                0x00000d44                GETCODEBYTE2
 .text.setupHaikuVM
                0x00000d5c       0x68 ./HaikuVM/JVM.o
                0x00000d5c                setupHaikuVM
 .text.startJVM
                0x00000dc4      0x3c0 ./HaikuVM/JVM.o
                0x00000dc4                startJVM
 .text.switchThread
                0x00001184       0x70 ./HaikuVM/JVM.o
                0x00001184                switchThread
 .text.__vector_16
                0x000011f4       0x4a ./HaikuVM/simpleOS.o
                0x000011f4                __vector_16
 .text.millis   0x0000123e       0x36 ./HaikuVM/simpleOS.o
                0x0000123e                millis
 .text.libgcc   0x00001274       0x28 d:/software/haikuvm/hardware/tools/avr/bin/../lib/gcc/avr/4.3.2/avr5\libgcc.a(_udivmodhi4.o)
                0x00001274                __udivmodhi4
 .text.libgcc   0x0000129c       0x26 d:/software/haikuvm/hardware/tools/avr/bin/../lib/gcc/avr/4.3.2/avr5\libgcc.a(_divmodhi4.o)
                0x0000129c                __divmodhi4
                0x0000129c                _div
 .text.libgcc   0x000012c2       0x44 d:/software/haikuvm/hardware/tools/avr/bin/../lib/gcc/avr/4.3.2/avr5\libgcc.a(_udivmodsi4.o)
                0x000012c2                __udivmodsi4
                0x00001306                . = ALIGN (0x2)
 *(.fini9)
 .fini9         0x00001306        0x0 d:/software/haikuvm/hardware/tools/avr/bin/../lib/gcc/avr/4.3.2/avr5\libgcc.a(_exit.o)
                0x00001306                _exit
 *(.fini9)
 *(.fini8)
 *(.fini8)
 *(.fini7)
 *(.fini7)
 *(.fini6)
 *(.fini6)
 *(.fini5)
 *(.fini5)
 *(.fini4)
 *(.fini4)
 *(.fini3)
 *(.fini3)
 *(.fini2)
 *(.fini2)
 *(.fini1)
 *(.fini1)
 *(.fini0)
 .fini0         0x00001306        0x4 d:/software/haikuvm/hardware/tools/avr/bin/../lib/gcc/avr/4.3.2/avr5\libgcc.a(_exit.o)
 *(.fini0)
                0x0000130a                _etext = .

.data           0x00800100        0x0 load address 0x0000130a
                0x00800100                PROVIDE (__data_start, .)
 *(.data)
 *(.data*)
 *(.rodata)
 *(.rodata*)
 *(.gnu.linkonce.d*)
                0x00800100                . = ALIGN (0x2)
                0x00800100                _edata = .
                0x00800100                PROVIDE (__data_end, .)

.bss            0x00800100      0x6ed
                0x00800100                PROVIDE (__bss_start, .)
 *(.bss)
 *(.bss*)
 .bss.GCcalls   0x00800100        0x2 ./HaikuVM/heap.o
 .bss.timer0_interrupts
                0x00800102        0x4 ./HaikuVM/simpleOS.o
                0x00800102                timer0_interrupts
 *(COMMON)
 COMMON         0x00800106        0xa ./HaikuVM/utility/haikuConfig.o
                0x00800106                allStatics
 COMMON         0x00800110        0xc ./HaikuVM/haikuJ2C.o
                0x00800110                stack
                0x00800112                top
                0x00800116                tvm
 COMMON         0x0080011c      0x6d1 ./HaikuVM/JVM.o
                0x0080011c                t
                0x0080011d                heapmem
                0x008007ec                bc
                0x008007ed                PROVIDE (__bss_end, .)
                0x0000130a                __data_load_start = LOADADDR (.data)
                0x0000130a                __data_load_end = (__data_load_start + SIZEOF (.data))

.noinit         0x008007ed        0x0
                0x008007ed                PROVIDE (__noinit_start, .)
 *(.noinit*)
                0x008007ed                PROVIDE (__noinit_end, .)
                0x008007ed                _end = .
                0x008007ed                PROVIDE (__heap_start, .)

.eeprom         0x00810000        0x0
 *(.eeprom*)
                0x00810000                __eeprom_end = .

.fuse
 *(.fuse)
 *(.lfuse)
 *(.hfuse)
 *(.efuse)

.lock
 *(.lock*)

.signature
 *(.signature*)

.stab
 *(.stab)

.stabstr
 *(.stabstr)

.stab.excl
 *(.stab.excl)

.stab.exclstr
 *(.stab.exclstr)

.stab.index
 *(.stab.index)

.stab.indexstr
 *(.stab.indexstr)

.comment
 *(.comment)

.debug
 *(.debug)

.line
 *(.line)

.debug_srcinfo
 *(.debug_srcinfo)

.debug_sfnames
 *(.debug_sfnames)

.debug_aranges
 *(.debug_aranges)

.debug_pubnames
 *(.debug_pubnames)

.debug_info
 *(.debug_info)
 *(.gnu.linkonce.wi.*)

.debug_abbrev
 *(.debug_abbrev)

.debug_line
 *(.debug_line)

.debug_frame
 *(.debug_frame)

.debug_str
 *(.debug_str)

.debug_loc
 *(.debug_loc)

.debug_macinfo
 *(.debug_macinfo)
OUTPUT(Test.elf elf32-avr)
LOAD linker stubs
